; Function Attrs: mustprogress nofree norecurse nosync nounwind willreturn memory(read, inaccessiblemem: none) uwtable
define hidden noundef zeroext i1 @_ZNK11bv_rewriter16is_add_mul_constEP4expr(ptr noundef nonnull readonly align 8 captures(none) dereferenceable(157) %0, ptr noundef readonly captures(address) %1) local_unnamed_addr #9 align 2 {
  %3 = getelementptr inbounds nuw i8, ptr %0, i64 8
  %4 = load i32, ptr %3, align 8, !tbaa !75
  %5 = getelementptr inbounds nuw i8, ptr %1, i64 4
  %6 = load i32, ptr %5, align 4
  %7 = and i32 %6, 65535
  %8 = icmp eq i32 %7, 0
  br i1 %8, label %9, label %_ZNK14bv_recognizers9is_bv_addEPK4expr.exit.thread

9:                                                ; preds = %2
  %10 = getelementptr inbounds nuw i8, ptr %1, i64 16
  %11 = load ptr, ptr %10, align 8, !tbaa !78
  %12 = getelementptr inbounds nuw i8, ptr %11, i64 24
  %13 = load ptr, ptr %12, align 8, !tbaa !57
  %.not.i.i.i.i = icmp eq ptr %13, null
  br i1 %.not.i.i.i.i, label %_ZNK14bv_recognizers9is_bv_addEPK4expr.exit.thread, label %_ZNK14bv_recognizers9is_bv_addEPK4expr.exit

_ZNK14bv_recognizers9is_bv_addEPK4expr.exit:      ; preds = %9
  %14 = load i32, ptr %13, align 8, !tbaa !82
  %15 = icmp eq i32 %14, %4
  %16 = getelementptr inbounds nuw i8, ptr %13, i64 4
  %17 = load i32, ptr %16, align 4
  %18 = icmp eq i32 %17, 4
  %19 = select i1 %15, i1 %18, i1 false
  br i1 %19, label %20, label %_ZNK14bv_recognizers9is_bv_addEPK4expr.exit.thread

20:                                               ; preds = %_ZNK14bv_recognizers9is_bv_addEPK4expr.exit
  %21 = getelementptr inbounds nuw i8, ptr %1, i64 24
  %22 = load i32, ptr %21, align 8, !tbaa !83
  %23 = zext i32 %22 to i64
  %.idx = shl nuw nsw i64 %23, 3
  %24 = getelementptr inbounds nuw i8, ptr %1, i64 %.idx
  %.ptr42 = getelementptr inbounds nuw i8, ptr %24, i64 32
  %.not28 = icmp eq i32 %22, 0
  br i1 %.not28, label %_ZNK14bv_recognizers9is_bv_addEPK4expr.exit.thread, label %.lr.ph.preheader

.lr.ph.preheader:                                 ; preds = %20
  %.ptr = getelementptr inbounds nuw i8, ptr %1, i64 32
  br label %.lr.ph

.lr.ph:                                           ; preds = %.lr.ph.preheader, %69
  %.01529 = phi ptr [ %70, %69 ], [ %.ptr, %.lr.ph.preheader ]
  %25 = load ptr, ptr %.01529, align 8, !tbaa !67
  %26 = getelementptr inbounds nuw i8, ptr %25, i64 4
  %27 = load i32, ptr %26, align 4
  %28 = and i32 %27, 65535
  %29 = icmp eq i32 %28, 0
  br i1 %29, label %30, label %_ZNK14bv_recognizers9is_bv_addEPK4expr.exit.thread

30:                                               ; preds = %.lr.ph
  %31 = getelementptr inbounds nuw i8, ptr %25, i64 16
  %32 = load ptr, ptr %31, align 8, !tbaa !78
  %33 = getelementptr inbounds nuw i8, ptr %32, i64 24
  %34 = load ptr, ptr %33, align 8, !tbaa !57
  %.not.i.i.i.i16 = icmp eq ptr %34, null
  br i1 %.not.i.i.i.i16, label %_ZNK14bv_recognizers9is_bv_addEPK4expr.exit.thread, label %_ZNK14bv_recognizers10is_numeralEPK4expr.exit

_ZNK14bv_recognizers10is_numeralEPK4expr.exit:    ; preds = %30
  %35 = load i32, ptr %34, align 8, !tbaa !82
  %36 = icmp eq i32 %35, %4
  %37 = getelementptr inbounds nuw i8, ptr %34, i64 4
  %38 = load i32, ptr %37, align 4
  %39 = icmp eq i32 %38, 0
  %40 = select i1 %36, i1 %39, i1 false
  br i1 %40, label %69, label %_ZNK14bv_recognizers9is_bv_mulEPK4expr.exit.i

_ZNK14bv_recognizers9is_bv_mulEPK4expr.exit.i:    ; preds = %_ZNK14bv_recognizers10is_numeralEPK4expr.exit
  %41 = load i32, ptr %34, align 8, !tbaa !82
  %42 = icmp eq i32 %41, %4
  %43 = getelementptr inbounds nuw i8, ptr %34, i64 4
  %44 = load i32, ptr %43, align 4
  %45 = icmp eq i32 %44, 6
  %46 = select i1 %42, i1 %45, i1 false
  br i1 %46, label %47, label %_ZNK14bv_recognizers9is_bv_addEPK4expr.exit.thread

47:                                               ; preds = %_ZNK14bv_recognizers9is_bv_mulEPK4expr.exit.i
  %48 = getelementptr inbounds nuw i8, ptr %25, i64 24
  %49 = load i32, ptr %48, align 8, !tbaa !83
  %50 = icmp eq i32 %49, 2
  br i1 %50, label %51, label %_ZNK14bv_recognizers9is_bv_addEPK4expr.exit.thread

51:                                               ; preds = %47
  %52 = getelementptr inbounds nuw i8, ptr %25, i64 32
  %53 = load ptr, ptr %52, align 8, !tbaa !67
  %54 = getelementptr inbounds nuw i8, ptr %53, i64 4
  %55 = load i32, ptr %54, align 4
  %56 = and i32 %55, 65535
  %57 = icmp eq i32 %56, 0
  br i1 %57, label %58, label %_ZNK14bv_recognizers9is_bv_addEPK4expr.exit.thread

58:                                               ; preds = %51
  %59 = getelementptr inbounds nuw i8, ptr %53, i64 16
  %60 = load ptr, ptr %59, align 8, !tbaa !78
  %61 = getelementptr inbounds nuw i8, ptr %60, i64 24
  %62 = load ptr, ptr %61, align 8, !tbaa !57
  %.not.i.i.i.i17 = icmp eq ptr %62, null
  br i1 %.not.i.i.i.i17, label %_ZNK14bv_recognizers9is_bv_addEPK4expr.exit.thread, label %_ZNK14bv_recognizers10is_numeralEPK4expr.exit18

_ZNK14bv_recognizers10is_numeralEPK4expr.exit18:  ; preds = %58
  %63 = load i32, ptr %62, align 8, !tbaa !82
  %64 = icmp eq i32 %63, %4
  %65 = getelementptr inbounds nuw i8, ptr %62, i64 4
  %66 = load i32, ptr %65, align 4
  %67 = icmp eq i32 %66, 0
  %68 = select i1 %64, i1 %67, i1 false
  br i1 %68, label %69, label %_ZNK14bv_recognizers9is_bv_addEPK4expr.exit.thread

69:                                               ; preds = %_ZNK14bv_recognizers10is_numeralEPK4expr.exit, %_ZNK14bv_recognizers10is_numeralEPK4expr.exit18
  %70 = getelementptr inbounds nuw i8, ptr %.01529, i64 8
  %.not = icmp eq ptr %70, %.ptr42
  br i1 %.not, label %_ZNK14bv_recognizers9is_bv_addEPK4expr.exit.thread, label %.lr.ph

_ZNK14bv_recognizers9is_bv_addEPK4expr.exit.thread: ; preds = %30, %_ZNK14bv_recognizers10is_numeralEPK4expr.exit18, %58, %51, %.lr.ph, %_ZNK14bv_recognizers9is_bv_mulEPK4expr.exit.i, %47, %69, %20, %9, %2, %_ZNK14bv_recognizers9is_bv_addEPK4expr.exit
  %.0 = phi i1 [ false, %_ZNK14bv_recognizers9is_bv_addEPK4expr.exit ], [ false, %2 ], [ false, %9 ], [ true, %20 ], [ false, %30 ], [ false, %_ZNK14bv_recognizers10is_numeralEPK4expr.exit18 ], [ false, %58 ], [ false, %51 ], [ false, %.lr.ph ], [ false, %_ZNK14bv_recognizers9is_bv_mulEPK4expr.exit.i ], [ false, %47 ], [ true, %69 ]
  ret i1 %.0
}